target datalayout = "e-m:e-p270:32:32-p271:32:32-p272:64:64-i64:64-i128:128-f80:128-n8:16:32:64-S128"
target triple = "x86_64-pc-linux-gnu"

%struct.novell_tap = type { i32, i32 }

@proto_register_ncp.ett = internal global [5 x ptr] [ptr @ett_ncp, ptr @ett_ncp_system_flags, ptr @ett_nds, ptr @ett_nds_segments, ptr @ett_nds_segment], align 16
@.str.250 = private unnamed_addr constant [22 x i8] c"NetWare Core Protocol\00", align 1
@.str.251 = private unnamed_addr constant [4 x i8] c"NCP\00", align 1
@.str.252 = private unnamed_addr constant [4 x i8] c"ncp\00", align 1
@proto_ncp = hidden global i32 0, align 4
@ncp_handle = internal global ptr null, align 8
@.str.253 = private unnamed_addr constant [8 x i8] c"ncp.tcp\00", align 1
@ncp_tcp_handle = internal global ptr null, align 8
@.str.254 = private unnamed_addr constant [18 x i8] c"initial_hash_size\00", align 1
@.str.255 = private unnamed_addr constant [10 x i8] c"desegment\00", align 1
@.str.256 = private unnamed_addr constant [64 x i8] c"Reassemble NCP-over-TCP messages spanning multiple TCP segments\00", align 1
@.str.257 = private unnamed_addr constant [204 x i8] c"Whether the NCP dissector should reassemble messages spanning multiple TCP segments. To use this option, you must also enable \22Allow subdissectors to reassemble TCP streams\22 in the TCP protocol settings.\00", align 1
@ncp_desegment = internal global i8 1, align 1
@.str.258 = private unnamed_addr constant [15 x i8] c"defragment_nds\00", align 1
@.str.259 = private unnamed_addr constant [67 x i8] c"Reassemble fragmented NDS messages spanning multiple reply packets\00", align 1
@.str.260 = private unnamed_addr constant [90 x i8] c"Whether the NCP dissector should defragment NDS messages spanning multiple reply packets.\00", align 1
@nds_defragment = external global i8, align 1
@.str.261 = private unnamed_addr constant [9 x i8] c"newstyle\00", align 1
@.str.262 = private unnamed_addr constant [42 x i8] c"Dissect New Netware Information Structure\00", align 1
@.str.263 = private unnamed_addr constant [92 x i8] c"Dissect the NetWare Information Structure as NetWare 5.x or higher or as older NetWare 3.x.\00", align 1
@ncp_newstyle = external global i8, align 1
@.str.264 = private unnamed_addr constant [13 x i8] c"eid_2_expert\00", align 1
@.str.265 = private unnamed_addr constant [29 x i8] c"Expert: EID to Name lookups?\00", align 1
@.str.266 = private unnamed_addr constant [93 x i8] c"Whether the NCP dissector should echo the NDS Entry ID to name resolves to the expert table.\00", align 1
@nds_echo_eid = external global i8, align 1
@.str.267 = private unnamed_addr constant [20 x i8] c"connection_2_expert\00", align 1
@.str.268 = private unnamed_addr constant [25 x i8] c"Expert: NCP Connections?\00", align 1
@.str.269 = private unnamed_addr constant [86 x i8] c"Whether the NCP dissector should echo NCP connection information to the expert table.\00", align 1
@ncp_echo_conn = external global i8, align 1
@.str.270 = private unnamed_addr constant [15 x i8] c"error_2_expert\00", align 1
@.str.271 = private unnamed_addr constant [20 x i8] c"Expert: NCP Errors?\00", align 1
@.str.272 = private unnamed_addr constant [75 x i8] c"Whether the NCP dissector should echo protocol errors to the expert table.\00", align 1
@ncp_echo_err = external global i8, align 1
@.str.273 = private unnamed_addr constant [16 x i8] c"server_2_expert\00", align 1
@.str.274 = private unnamed_addr constant [28 x i8] c"Expert: Server Information?\00", align 1
@.str.275 = private unnamed_addr constant [78 x i8] c"Whether the NCP dissector should echo server information to the expert table.\00", align 1
@ncp_echo_server = external global i8, align 1
@.str.276 = private unnamed_addr constant [14 x i8] c"file_2_expert\00", align 1
@.str.277 = private unnamed_addr constant [26 x i8] c"Expert: File Information?\00", align 1
@.str.278 = private unnamed_addr constant [94 x i8] c"Whether the NCP dissector should echo file open/close/oplock information to the expert table.\00", align 1
@ncp_echo_file = external global i8, align 1
@.str.279 = private unnamed_addr constant [8 x i8] c"ncp_srt\00", align 1
@ncp_tap = internal global %struct.novell_tap zeroinitializer, align 4

; Function Attrs: null_pointer_is_valid sspstrong uwtable
define hidden void @proto_register_ncp() #0 {
  %1 = alloca ptr, align 8
  %2 = alloca ptr, align 8
  call void @llvm.lifetime.start.p0(i64 8, ptr %1) #8
  call void @llvm.lifetime.start.p0(i64 8, ptr %2) #8
  %3 = call i32 @proto_register_protocol(ptr noundef @.str.250, ptr noundef @.str.251, ptr noundef @.str.252)
  store i32 %3, ptr @proto_ncp, align 4
  %4 = load i32, ptr @proto_ncp, align 4
  call void @proto_register_field_array(i32 noundef %4, ptr noundef @proto_register_ncp.hf, i32 noundef 40)
  call void @proto_register_subtree_array(ptr noundef @proto_register_ncp.ett, i32 noundef 5)
  %5 = load i32, ptr @proto_ncp, align 4
  %6 = call ptr @expert_register_protocol(i32 noundef %5)
  store ptr %6, ptr %2, align 8
  %7 = load ptr, ptr %2, align 8
  call void @expert_register_field_array(ptr noundef %7, ptr noundef @proto_register_ncp.ei, i32 noundef 3)
  %8 = load i32, ptr @proto_ncp, align 4
  %9 = call ptr @register_dissector(ptr noundef @.str.252, ptr noundef @dissect_ncp, i32 noundef %8)
  store ptr %9, ptr @ncp_handle, align 8
  %10 = load i32, ptr @proto_ncp, align 4
  %11 = call ptr @register_dissector(ptr noundef @.str.253, ptr noundef @dissect_ncp_tcp, i32 noundef %10)
  store ptr %11, ptr @ncp_tcp_handle, align 8
  %12 = load i32, ptr @proto_ncp, align 4
  %13 = call ptr @prefs_register_protocol(i32 noundef %12, ptr noundef null)
  store ptr %13, ptr %1, align 8
  %14 = load ptr, ptr %1, align 8
  call void @prefs_register_obsolete_preference(ptr noundef %14, ptr noundef @.str.254)
  %15 = load ptr, ptr %1, align 8
  call void @prefs_register_bool_preference(ptr noundef %15, ptr noundef @.str.255, ptr noundef @.str.256, ptr noundef @.str.257, ptr noundef @ncp_desegment)
  %16 = load ptr, ptr %1, align 8
  call void @prefs_register_bool_preference(ptr noundef %16, ptr noundef @.str.258, ptr noundef @.str.259, ptr noundef @.str.260, ptr noundef @nds_defragment)
  %17 = load ptr, ptr %1, align 8
  call void @prefs_register_bool_preference(ptr noundef %17, ptr noundef @.str.261, ptr noundef @.str.262, ptr noundef @.str.263, ptr noundef @ncp_newstyle)
  %18 = load ptr, ptr %1, align 8
  call void @prefs_register_bool_preference(ptr noundef %18, ptr noundef @.str.264, ptr noundef @.str.265, ptr noundef @.str.266, ptr noundef @nds_echo_eid)
  %19 = load ptr, ptr %1, align 8
  call void @prefs_register_bool_preference(ptr noundef %19, ptr noundef @.str.267, ptr noundef @.str.268, ptr noundef @.str.269, ptr noundef @ncp_echo_conn)
  %20 = load ptr, ptr %1, align 8
  call void @prefs_register_bool_preference(ptr noundef %20, ptr noundef @.str.270, ptr noundef @.str.271, ptr noundef @.str.272, ptr noundef @ncp_echo_err)
  %21 = load ptr, ptr %1, align 8
  call void @prefs_register_bool_preference(ptr noundef %21, ptr noundef @.str.273, ptr noundef @.str.274, ptr noundef @.str.275, ptr noundef @ncp_echo_server)
  %22 = load ptr, ptr %1, align 8
  call void @prefs_register_bool_preference(ptr noundef %22, ptr noundef @.str.276, ptr noundef @.str.277, ptr noundef @.str.278, ptr noundef @ncp_echo_file)
  call void @register_init_routine(ptr noundef @mncp_init_protocol)
  call void @register_cleanup_routine(ptr noundef @mncp_cleanup_protocol)
  %23 = call i32 @register_tap(ptr noundef @.str.279)
  store i32 %23, ptr @ncp_tap, align 4
  %24 = call i32 @register_tap(ptr noundef @.str.252)
  store i32 %24, ptr getelementptr inbounds nuw (%struct.novell_tap, ptr @ncp_tap, i32 0, i32 1), align 4
  %25 = load i32, ptr @proto_ncp, align 4
  call void @register_conversation_table(i32 noundef %25, i1 noundef zeroext false, ptr noundef @ncp_conversation_packet, ptr noundef @ncp_endpoint_packet)
  %26 = load i32, ptr @proto_ncp, align 4
  call void @register_srt_table(i32 noundef %26, ptr noundef @.str.279, i32 noundef 24, ptr noundef @ncpstat_packet, ptr noundef @ncpstat_init, ptr noundef null)
  call void @llvm.lifetime.end.p0(i64 8, ptr %2) #8
  call void @llvm.lifetime.end.p0(i64 8, ptr %1) #8
  ret void
}