; Function Attrs: null_pointer_is_valid sspstrong uwtable
define hidden void @proto_register_ncp() local_unnamed_addr #0 {
  %1 = tail call i32 @proto_register_protocol(ptr noundef nonnull @.str.250, ptr noundef nonnull @.str.251, ptr noundef nonnull @.str.252)
  store i32 %1, ptr @proto_ncp, align 4
  tail call void @proto_register_field_array(i32 noundef %1, ptr noundef nonnull @proto_register_ncp.hf, i32 noundef 40)
  tail call void @proto_register_subtree_array(ptr noundef nonnull @proto_register_ncp.ett, i32 noundef 5)
  %2 = load i32, ptr @proto_ncp, align 4
  %3 = tail call ptr @expert_register_protocol(i32 noundef %2)
  tail call void @expert_register_field_array(ptr noundef %3, ptr noundef nonnull @proto_register_ncp.ei, i32 noundef 3)
  %4 = load i32, ptr @proto_ncp, align 4
  %5 = tail call ptr @register_dissector(ptr noundef nonnull @.str.252, ptr noundef nonnull @dissect_ncp, i32 noundef %4)
  store ptr %5, ptr @ncp_handle, align 8
  %6 = load i32, ptr @proto_ncp, align 4
  %7 = tail call ptr @register_dissector(ptr noundef nonnull @.str.253, ptr noundef nonnull @dissect_ncp_tcp, i32 noundef %6)
  store ptr %7, ptr @ncp_tcp_handle, align 8
  %8 = load i32, ptr @proto_ncp, align 4
  %9 = tail call ptr @prefs_register_protocol(i32 noundef %8, ptr noundef null)
  tail call void @prefs_register_obsolete_preference(ptr noundef %9, ptr noundef nonnull @.str.254)
  tail call void @prefs_register_bool_preference(ptr noundef %9, ptr noundef nonnull @.str.255, ptr noundef nonnull @.str.256, ptr noundef nonnull @.str.257, ptr noundef nonnull @ncp_desegment)
  tail call void @prefs_register_bool_preference(ptr noundef %9, ptr noundef nonnull @.str.258, ptr noundef nonnull @.str.259, ptr noundef nonnull @.str.260, ptr noundef nonnull @nds_defragment)
  tail call void @prefs_register_bool_preference(ptr noundef %9, ptr noundef nonnull @.str.261, ptr noundef nonnull @.str.262, ptr noundef nonnull @.str.263, ptr noundef nonnull @ncp_newstyle)
  tail call void @prefs_register_bool_preference(ptr noundef %9, ptr noundef nonnull @.str.264, ptr noundef nonnull @.str.265, ptr noundef nonnull @.str.266, ptr noundef nonnull @nds_echo_eid)
  tail call void @prefs_register_bool_preference(ptr noundef %9, ptr noundef nonnull @.str.267, ptr noundef nonnull @.str.268, ptr noundef nonnull @.str.269, ptr noundef nonnull @ncp_echo_conn)
  tail call void @prefs_register_bool_preference(ptr noundef %9, ptr noundef nonnull @.str.270, ptr noundef nonnull @.str.271, ptr noundef nonnull @.str.272, ptr noundef nonnull @ncp_echo_err)
  tail call void @prefs_register_bool_preference(ptr noundef %9, ptr noundef nonnull @.str.273, ptr noundef nonnull @.str.274, ptr noundef nonnull @.str.275, ptr noundef nonnull @ncp_echo_server)
  tail call void @prefs_register_bool_preference(ptr noundef %9, ptr noundef nonnull @.str.276, ptr noundef nonnull @.str.277, ptr noundef nonnull @.str.278, ptr noundef nonnull @ncp_echo_file)
  tail call void @register_init_routine(ptr noundef nonnull @mncp_init_protocol)
  tail call void @register_cleanup_routine(ptr noundef nonnull @mncp_cleanup_protocol)
  %10 = tail call i32 @register_tap(ptr noundef nonnull @.str.279)
  store i32 %10, ptr @ncp_tap, align 4
  %11 = tail call i32 @register_tap(ptr noundef nonnull @.str.252)
  store i32 %11, ptr getelementptr inbounds nuw (i8, ptr @ncp_tap, i64 4), align 4
  %12 = load i32, ptr @proto_ncp, align 4
  tail call void @register_conversation_table(i32 noundef %12, i1 noundef zeroext false, ptr noundef nonnull @ncp_conversation_packet, ptr noundef nonnull @ncp_endpoint_packet)
  %13 = load i32, ptr @proto_ncp, align 4
  tail call void @register_srt_table(i32 noundef %13, ptr noundef nonnull @.str.279, i32 noundef 24, ptr noundef nonnull @ncpstat_packet, ptr noundef nonnull @ncpstat_init, ptr noundef null)
  ret void
}